target datalayout = "e-m:e-p270:32:32-p271:32:32-p272:64:64-i64:64-i128:128-f80:128-n8:16:32:64-S128"
target triple = "x86_64-unknown-linux-gnu"

%"class.base::internal::JSONParser::StringBuilder" = type { ptr, i64, ptr }

; Function Attrs: mustprogress nounwind uwtable
define dso_local void @_ZN4base8internal10JSONParser13StringBuilderD2Ev(ptr noundef nonnull align 8 dereferenceable(24) %this) unnamed_addr #0 align 2 {
entry:
  %this.addr = alloca ptr, align 8
  store ptr %this, ptr %this.addr, align 8
  %this1 = load ptr, ptr %this.addr, align 8
  %string_ = getelementptr inbounds %"class.base::internal::JSONParser::StringBuilder", ptr %this1, i32 0, i32 2
  %0 = load ptr, ptr %string_, align 8
  %isnull = icmp eq ptr %0, null
  br i1 %isnull, label %delete.end, label %delete.notnull

delete.notnull:                                   ; preds = %entry
  call void @_ZNSt7__cxx1112basic_stringIcSt11char_traitsIcESaIcEED1Ev(ptr noundef nonnull align 8 dereferenceable(32) %0) #11
  call void @_ZdlPv(ptr noundef %0) #13
  br label %delete.end

delete.end:                                       ; preds = %delete.notnull, %entry
  ret void
}