; Function Attrs: mustprogress nounwind uwtable
define dso_local void @_ZN4base8internal10JSONParser13StringBuilderD2Ev(ptr nocapture noundef nonnull readonly align 8 dereferenceable(24) %this) unnamed_addr #4 align 2 {
entry:
  %string_ = getelementptr inbounds i8, ptr %this, i64 16
  %0 = load ptr, ptr %string_, align 8
  %isnull = icmp eq ptr %0, null
  br i1 %isnull, label %delete.end, label %delete.notnull

delete.notnull:                                   ; preds = %entry
  tail call void @_ZNSt7__cxx1112basic_stringIcSt11char_traitsIcESaIcEED1Ev(ptr noundef nonnull align 8 dereferenceable(32) %0) #17
  tail call void @_ZdlPv(ptr noundef nonnull %0) #18
  br label %delete.end

delete.end:                                       ; preds = %delete.notnull, %entry
  ret void
}